target datalayout = "e-m:e-p270:32:32-p271:32:32-p272:64:64-i64:64-i128:128-f80:128-n8:16:32:64-S128"
target triple = "x86_64-pc-linux-gnu"

; Function Attrs: nounwind uwtable
define internal void @snow_horizontal_compose97i(ptr noundef %0, ptr noundef %1, i32 noundef %2) #0 {
  %4 = alloca ptr, align 8
  %5 = alloca ptr, align 8
  %6 = alloca i32, align 4
  %7 = alloca i32, align 4
  %8 = alloca i32, align 4
  store ptr %0, ptr %4, align 8, !tbaa !11
  store ptr %1, ptr %5, align 8, !tbaa !11
  store i32 %2, ptr %6, align 4, !tbaa !9
  call void @llvm.lifetime.start.p0(i64 4, ptr %7) #8
  %9 = load i32, ptr %6, align 4, !tbaa !9
  %10 = add nsw i32 %9, 1
  %11 = ashr i32 %10, 1
  store i32 %11, ptr %7, align 4, !tbaa !9
  call void @llvm.lifetime.start.p0(i64 4, ptr %8) #8
  %12 = load ptr, ptr %4, align 8, !tbaa !11
  %13 = getelementptr inbounds i16, ptr %12, i64 0
  %14 = load i16, ptr %13, align 2, !tbaa !49
  %15 = sext i16 %14 to i32
  %16 = load ptr, ptr %4, align 8, !tbaa !11
  %17 = load i32, ptr %7, align 4, !tbaa !9
  %18 = sext i32 %17 to i64
  %19 = getelementptr inbounds i16, ptr %16, i64 %18
  %20 = load i16, ptr %19, align 2, !tbaa !49
  %21 = sext i16 %20 to i32
  %22 = mul nsw i32 3, %21
  %23 = add nsw i32 %22, 2
  %24 = ashr i32 %23, 2
  %25 = sub nsw i32 %15, %24
  %26 = trunc i32 %25 to i16
  %27 = load ptr, ptr %5, align 8, !tbaa !11
  %28 = getelementptr inbounds i16, ptr %27, i64 0
  store i16 %26, ptr %28, align 2, !tbaa !49
  store i32 1, ptr %8, align 4, !tbaa !9
  br label %29

29:                                               ; preds = %102, %3
  %30 = load i32, ptr %8, align 4, !tbaa !9
  %31 = load i32, ptr %6, align 4, !tbaa !9
  %32 = ashr i32 %31, 1
  %33 = icmp slt i32 %30, %32
  br i1 %33, label %34, label %105

34:                                               ; preds = %29
  %35 = load ptr, ptr %4, align 8, !tbaa !11
  %36 = load i32, ptr %8, align 4, !tbaa !9
  %37 = sext i32 %36 to i64
  %38 = getelementptr inbounds i16, ptr %35, i64 %37
  %39 = load i16, ptr %38, align 2, !tbaa !49
  %40 = sext i16 %39 to i32
  %41 = load ptr, ptr %4, align 8, !tbaa !11
  %42 = load i32, ptr %8, align 4, !tbaa !9
  %43 = load i32, ptr %7, align 4, !tbaa !9
  %44 = add nsw i32 %42, %43
  %45 = sub nsw i32 %44, 1
  %46 = sext i32 %45 to i64
  %47 = getelementptr inbounds i16, ptr %41, i64 %46
  %48 = load i16, ptr %47, align 2, !tbaa !49
  %49 = sext i16 %48 to i32
  %50 = load ptr, ptr %4, align 8, !tbaa !11
  %51 = load i32, ptr %8, align 4, !tbaa !9
  %52 = load i32, ptr %7, align 4, !tbaa !9
  %53 = add nsw i32 %51, %52
  %54 = sext i32 %53 to i64
  %55 = getelementptr inbounds i16, ptr %50, i64 %54
  %56 = load i16, ptr %55, align 2, !tbaa !49
  %57 = sext i16 %56 to i32
  %58 = add nsw i32 %49, %57
  %59 = mul nsw i32 3, %58
  %60 = add nsw i32 %59, 4
  %61 = ashr i32 %60, 3
  %62 = sub nsw i32 %40, %61
  %63 = trunc i32 %62 to i16
  %64 = load ptr, ptr %5, align 8, !tbaa !11
  %65 = load i32, ptr %8, align 4, !tbaa !9
  %66 = mul nsw i32 2, %65
  %67 = sext i32 %66 to i64
  %68 = getelementptr inbounds i16, ptr %64, i64 %67
  store i16 %63, ptr %68, align 2, !tbaa !49
  %69 = load ptr, ptr %4, align 8, !tbaa !11
  %70 = load i32, ptr %8, align 4, !tbaa !9
  %71 = load i32, ptr %7, align 4, !tbaa !9
  %72 = add nsw i32 %70, %71
  %73 = sub nsw i32 %72, 1
  %74 = sext i32 %73 to i64
  %75 = getelementptr inbounds i16, ptr %69, i64 %74
  %76 = load i16, ptr %75, align 2, !tbaa !49
  %77 = sext i16 %76 to i32
  %78 = load ptr, ptr %5, align 8, !tbaa !11
  %79 = load i32, ptr %8, align 4, !tbaa !9
  %80 = mul nsw i32 2, %79
  %81 = sub nsw i32 %80, 2
  %82 = sext i32 %81 to i64
  %83 = getelementptr inbounds i16, ptr %78, i64 %82
  %84 = load i16, ptr %83, align 2, !tbaa !49
  %85 = sext i16 %84 to i32
  %86 = sub nsw i32 %77, %85
  %87 = load ptr, ptr %5, align 8, !tbaa !11
  %88 = load i32, ptr %8, align 4, !tbaa !9
  %89 = mul nsw i32 2, %88
  %90 = sext i32 %89 to i64
  %91 = getelementptr inbounds i16, ptr %87, i64 %90
  %92 = load i16, ptr %91, align 2, !tbaa !49
  %93 = sext i16 %92 to i32
  %94 = sub nsw i32 %86, %93
  %95 = trunc i32 %94 to i16
  %96 = load ptr, ptr %5, align 8, !tbaa !11
  %97 = load i32, ptr %8, align 4, !tbaa !9
  %98 = mul nsw i32 2, %97
  %99 = sub nsw i32 %98, 1
  %100 = sext i32 %99 to i64
  %101 = getelementptr inbounds i16, ptr %96, i64 %100
  store i16 %95, ptr %101, align 2, !tbaa !49
  br label %102

102:                                              ; preds = %34
  %103 = load i32, ptr %8, align 4, !tbaa !9
  %104 = add nsw i32 %103, 1
  store i32 %104, ptr %8, align 4, !tbaa !9
  br label %29, !llvm.loop !74

105:                                              ; preds = %29
  %106 = load i32, ptr %6, align 4, !tbaa !9
  %107 = and i32 %106, 1
  %108 = icmp ne i32 %107, 0
  br i1 %108, label %109, label %168

109:                                              ; preds = %105
  %110 = load ptr, ptr %4, align 8, !tbaa !11
  %111 = load i32, ptr %8, align 4, !tbaa !9
  %112 = sext i32 %111 to i64
  %113 = getelementptr inbounds i16, ptr %110, i64 %112
  %114 = load i16, ptr %113, align 2, !tbaa !49
  %115 = sext i16 %114 to i32
  %116 = load ptr, ptr %4, align 8, !tbaa !11
  %117 = load i32, ptr %8, align 4, !tbaa !9
  %118 = load i32, ptr %7, align 4, !tbaa !9
  %119 = add nsw i32 %117, %118
  %120 = sub nsw i32 %119, 1
  %121 = sext i32 %120 to i64
  %122 = getelementptr inbounds i16, ptr %116, i64 %121
  %123 = load i16, ptr %122, align 2, !tbaa !49
  %124 = sext i16 %123 to i32
  %125 = mul nsw i32 3, %124
  %126 = add nsw i32 %125, 2
  %127 = ashr i32 %126, 2
  %128 = sub nsw i32 %115, %127
  %129 = trunc i32 %128 to i16
  %130 = load ptr, ptr %5, align 8, !tbaa !11
  %131 = load i32, ptr %8, align 4, !tbaa !9
  %132 = mul nsw i32 2, %131
  %133 = sext i32 %132 to i64
  %134 = getelementptr inbounds i16, ptr %130, i64 %133
  store i16 %129, ptr %134, align 2, !tbaa !49
  %135 = load ptr, ptr %4, align 8, !tbaa !11
  %136 = load i32, ptr %8, align 4, !tbaa !9
  %137 = load i32, ptr %7, align 4, !tbaa !9
  %138 = add nsw i32 %136, %137
  %139 = sub nsw i32 %138, 1
  %140 = sext i32 %139 to i64
  %141 = getelementptr inbounds i16, ptr %135, i64 %140
  %142 = load i16, ptr %141, align 2, !tbaa !49
  %143 = sext i16 %142 to i32
  %144 = load ptr, ptr %5, align 8, !tbaa !11
  %145 = load i32, ptr %8, align 4, !tbaa !9
  %146 = mul nsw i32 2, %145
  %147 = sub nsw i32 %146, 2
  %148 = sext i32 %147 to i64
  %149 = getelementptr inbounds i16, ptr %144, i64 %148
  %150 = load i16, ptr %149, align 2, !tbaa !49
  %151 = sext i16 %150 to i32
  %152 = sub nsw i32 %143, %151
  %153 = load ptr, ptr %5, align 8, !tbaa !11
  %154 = load i32, ptr %8, align 4, !tbaa !9
  %155 = mul nsw i32 2, %154
  %156 = sext i32 %155 to i64
  %157 = getelementptr inbounds i16, ptr %153, i64 %156
  %158 = load i16, ptr %157, align 2, !tbaa !49
  %159 = sext i16 %158 to i32
  %160 = sub nsw i32 %152, %159
  %161 = trunc i32 %160 to i16
  %162 = load ptr, ptr %5, align 8, !tbaa !11
  %163 = load i32, ptr %8, align 4, !tbaa !9
  %164 = mul nsw i32 2, %163
  %165 = sub nsw i32 %164, 1
  %166 = sext i32 %165 to i64
  %167 = getelementptr inbounds i16, ptr %162, i64 %166
  store i16 %161, ptr %167, align 2, !tbaa !49
  br label %195

168:                                              ; preds = %105
  %169 = load ptr, ptr %4, align 8, !tbaa !11
  %170 = load i32, ptr %8, align 4, !tbaa !9
  %171 = load i32, ptr %7, align 4, !tbaa !9
  %172 = add nsw i32 %170, %171
  %173 = sub nsw i32 %172, 1
  %174 = sext i32 %173 to i64
  %175 = getelementptr inbounds i16, ptr %169, i64 %174
  %176 = load i16, ptr %175, align 2, !tbaa !49
  %177 = sext i16 %176 to i32
  %178 = load ptr, ptr %5, align 8, !tbaa !11
  %179 = load i32, ptr %8, align 4, !tbaa !9
  %180 = mul nsw i32 2, %179
  %181 = sub nsw i32 %180, 2
  %182 = sext i32 %181 to i64
  %183 = getelementptr inbounds i16, ptr %178, i64 %182
  %184 = load i16, ptr %183, align 2, !tbaa !49
  %185 = sext i16 %184 to i32
  %186 = mul nsw i32 2, %185
  %187 = sub nsw i32 %177, %186
  %188 = trunc i32 %187 to i16
  %189 = load ptr, ptr %5, align 8, !tbaa !11
  %190 = load i32, ptr %8, align 4, !tbaa !9
  %191 = mul nsw i32 2, %190
  %192 = sub nsw i32 %191, 1
  %193 = sext i32 %192 to i64
  %194 = getelementptr inbounds i16, ptr %189, i64 %193
  store i16 %188, ptr %194, align 2, !tbaa !49
  br label %195

195:                                              ; preds = %168, %109
  %196 = load ptr, ptr %5, align 8, !tbaa !11
  %197 = getelementptr inbounds i16, ptr %196, i64 0
  %198 = load i16, ptr %197, align 2, !tbaa !49
  %199 = sext i16 %198 to i32
  %200 = load ptr, ptr %5, align 8, !tbaa !11
  %201 = getelementptr inbounds i16, ptr %200, i64 0
  %202 = load i16, ptr %201, align 2, !tbaa !49
  %203 = sext i16 %202 to i32
  %204 = mul nsw i32 2, %203
  %205 = load ptr, ptr %5, align 8, !tbaa !11
  %206 = getelementptr inbounds i16, ptr %205, i64 1
  %207 = load i16, ptr %206, align 2, !tbaa !49
  %208 = sext i16 %207 to i32
  %209 = add nsw i32 %204, %208
  %210 = add nsw i32 %209, 4
  %211 = ashr i32 %210, 3
  %212 = add nsw i32 %199, %211
  %213 = trunc i32 %212 to i16
  %214 = load ptr, ptr %4, align 8, !tbaa !11
  %215 = getelementptr inbounds i16, ptr %214, i64 0
  store i16 %213, ptr %215, align 2, !tbaa !49
  store i32 2, ptr %8, align 4, !tbaa !9
  br label %216

216:                                              ; preds = %289, %195
  %217 = load i32, ptr %8, align 4, !tbaa !9
  %218 = load i32, ptr %6, align 4, !tbaa !9
  %219 = sub nsw i32 %218, 1
  %220 = icmp slt i32 %217, %219
  br i1 %220, label %221, label %292

221:                                              ; preds = %216
  %222 = load ptr, ptr %5, align 8, !tbaa !11
  %223 = load i32, ptr %8, align 4, !tbaa !9
  %224 = sext i32 %223 to i64
  %225 = getelementptr inbounds i16, ptr %222, i64 %224
  %226 = load i16, ptr %225, align 2, !tbaa !49
  %227 = sext i16 %226 to i32
  %228 = load ptr, ptr %5, align 8, !tbaa !11
  %229 = load i32, ptr %8, align 4, !tbaa !9
  %230 = sext i32 %229 to i64
  %231 = getelementptr inbounds i16, ptr %228, i64 %230
  %232 = load i16, ptr %231, align 2, !tbaa !49
  %233 = sext i16 %232 to i32
  %234 = mul nsw i32 4, %233
  %235 = load ptr, ptr %5, align 8, !tbaa !11
  %236 = load i32, ptr %8, align 4, !tbaa !9
  %237 = sub nsw i32 %236, 1
  %238 = sext i32 %237 to i64
  %239 = getelementptr inbounds i16, ptr %235, i64 %238
  %240 = load i16, ptr %239, align 2, !tbaa !49
  %241 = sext i16 %240 to i32
  %242 = add nsw i32 %234, %241
  %243 = load ptr, ptr %5, align 8, !tbaa !11
  %244 = load i32, ptr %8, align 4, !tbaa !9
  %245 = add nsw i32 %244, 1
  %246 = sext i32 %245 to i64
  %247 = getelementptr inbounds i16, ptr %243, i64 %246
  %248 = load i16, ptr %247, align 2, !tbaa !49
  %249 = sext i16 %248 to i32
  %250 = add nsw i32 %242, %249
  %251 = add nsw i32 %250, 8
  %252 = ashr i32 %251, 4
  %253 = add nsw i32 %227, %252
  %254 = trunc i32 %253 to i16
  %255 = load ptr, ptr %4, align 8, !tbaa !11
  %256 = load i32, ptr %8, align 4, !tbaa !9
  %257 = sext i32 %256 to i64
  %258 = getelementptr inbounds i16, ptr %255, i64 %257
  store i16 %254, ptr %258, align 2, !tbaa !49
  %259 = load ptr, ptr %5, align 8, !tbaa !11
  %260 = load i32, ptr %8, align 4, !tbaa !9
  %261 = sub nsw i32 %260, 1
  %262 = sext i32 %261 to i64
  %263 = getelementptr inbounds i16, ptr %259, i64 %262
  %264 = load i16, ptr %263, align 2, !tbaa !49
  %265 = sext i16 %264 to i32
  %266 = load ptr, ptr %4, align 8, !tbaa !11
  %267 = load i32, ptr %8, align 4, !tbaa !9
  %268 = sub nsw i32 %267, 2
  %269 = sext i32 %268 to i64
  %270 = getelementptr inbounds i16, ptr %266, i64 %269
  %271 = load i16, ptr %270, align 2, !tbaa !49
  %272 = sext i16 %271 to i32
  %273 = load ptr, ptr %4, align 8, !tbaa !11
  %274 = load i32, ptr %8, align 4, !tbaa !9
  %275 = sext i32 %274 to i64
  %276 = getelementptr inbounds i16, ptr %273, i64 %275
  %277 = load i16, ptr %276, align 2, !tbaa !49
  %278 = sext i16 %277 to i32
  %279 = add nsw i32 %272, %278
  %280 = mul nsw i32 3, %279
  %281 = ashr i32 %280, 1
  %282 = add nsw i32 %265, %281
  %283 = trunc i32 %282 to i16
  %284 = load ptr, ptr %4, align 8, !tbaa !11
  %285 = load i32, ptr %8, align 4, !tbaa !9
  %286 = sub nsw i32 %285, 1
  %287 = sext i32 %286 to i64
  %288 = getelementptr inbounds i16, ptr %284, i64 %287
  store i16 %283, ptr %288, align 2, !tbaa !49
  br label %289

289:                                              ; preds = %221
  %290 = load i32, ptr %8, align 4, !tbaa !9
  %291 = add nsw i32 %290, 2
  store i32 %291, ptr %8, align 4, !tbaa !9
  br label %216, !llvm.loop !75

292:                                              ; preds = %216
  %293 = load i32, ptr %6, align 4, !tbaa !9
  %294 = and i32 %293, 1
  %295 = icmp ne i32 %294, 0
  br i1 %295, label %296, label %356

296:                                              ; preds = %292
  %297 = load ptr, ptr %5, align 8, !tbaa !11
  %298 = load i32, ptr %8, align 4, !tbaa !9
  %299 = sext i32 %298 to i64
  %300 = getelementptr inbounds i16, ptr %297, i64 %299
  %301 = load i16, ptr %300, align 2, !tbaa !49
  %302 = sext i16 %301 to i32
  %303 = load ptr, ptr %5, align 8, !tbaa !11
  %304 = load i32, ptr %8, align 4, !tbaa !9
  %305 = sext i32 %304 to i64
  %306 = getelementptr inbounds i16, ptr %303, i64 %305
  %307 = load i16, ptr %306, align 2, !tbaa !49
  %308 = sext i16 %307 to i32
  %309 = mul nsw i32 2, %308
  %310 = load ptr, ptr %5, align 8, !tbaa !11
  %311 = load i32, ptr %8, align 4, !tbaa !9
  %312 = sub nsw i32 %311, 1
  %313 = sext i32 %312 to i64
  %314 = getelementptr inbounds i16, ptr %310, i64 %313
  %315 = load i16, ptr %314, align 2, !tbaa !49
  %316 = sext i16 %315 to i32
  %317 = add nsw i32 %309, %316
  %318 = add nsw i32 %317, 4
  %319 = ashr i32 %318, 3
  %320 = add nsw i32 %302, %319
  %321 = trunc i32 %320 to i16
  %322 = load ptr, ptr %4, align 8, !tbaa !11
  %323 = load i32, ptr %8, align 4, !tbaa !9
  %324 = sext i32 %323 to i64
  %325 = getelementptr inbounds i16, ptr %322, i64 %324
  store i16 %321, ptr %325, align 2, !tbaa !49
  %326 = load ptr, ptr %5, align 8, !tbaa !11
  %327 = load i32, ptr %8, align 4, !tbaa !9
  %328 = sub nsw i32 %327, 1
  %329 = sext i32 %328 to i64
  %330 = getelementptr inbounds i16, ptr %326, i64 %329
  %331 = load i16, ptr %330, align 2, !tbaa !49
  %332 = sext i16 %331 to i32
  %333 = load ptr, ptr %4, align 8, !tbaa !11
  %334 = load i32, ptr %8, align 4, !tbaa !9
  %335 = sub nsw i32 %334, 2
  %336 = sext i32 %335 to i64
  %337 = getelementptr inbounds i16, ptr %333, i64 %336
  %338 = load i16, ptr %337, align 2, !tbaa !49
  %339 = sext i16 %338 to i32
  %340 = load ptr, ptr %4, align 8, !tbaa !11
  %341 = load i32, ptr %8, align 4, !tbaa !9
  %342 = sext i32 %341 to i64
  %343 = getelementptr inbounds i16, ptr %340, i64 %342
  %344 = load i16, ptr %343, align 2, !tbaa !49
  %345 = sext i16 %344 to i32
  %346 = add nsw i32 %339, %345
  %347 = mul nsw i32 3, %346
  %348 = ashr i32 %347, 1
  %349 = add nsw i32 %332, %348
  %350 = trunc i32 %349 to i16
  %351 = load ptr, ptr %4, align 8, !tbaa !11
  %352 = load i32, ptr %8, align 4, !tbaa !9
  %353 = sub nsw i32 %352, 1
  %354 = sext i32 %353 to i64
  %355 = getelementptr inbounds i16, ptr %351, i64 %354
  store i16 %350, ptr %355, align 2, !tbaa !49
  br label %379

356:                                              ; preds = %292
  %357 = load ptr, ptr %5, align 8, !tbaa !11
  %358 = load i32, ptr %8, align 4, !tbaa !9
  %359 = sub nsw i32 %358, 1
  %360 = sext i32 %359 to i64
  %361 = getelementptr inbounds i16, ptr %357, i64 %360
  %362 = load i16, ptr %361, align 2, !tbaa !49
  %363 = sext i16 %362 to i32
  %364 = load ptr, ptr %4, align 8, !tbaa !11
  %365 = load i32, ptr %8, align 4, !tbaa !9
  %366 = sub nsw i32 %365, 2
  %367 = sext i32 %366 to i64
  %368 = getelementptr inbounds i16, ptr %364, i64 %367
  %369 = load i16, ptr %368, align 2, !tbaa !49
  %370 = sext i16 %369 to i32
  %371 = mul nsw i32 3, %370
  %372 = add nsw i32 %363, %371
  %373 = trunc i32 %372 to i16
  %374 = load ptr, ptr %4, align 8, !tbaa !11
  %375 = load i32, ptr %8, align 4, !tbaa !9
  %376 = sub nsw i32 %375, 1
  %377 = sext i32 %376 to i64
  %378 = getelementptr inbounds i16, ptr %374, i64 %377
  store i16 %373, ptr %378, align 2, !tbaa !49
  br label %379

379:                                              ; preds = %356, %296
  call void @llvm.lifetime.end.p0(i64 4, ptr %8) #8
  call void @llvm.lifetime.end.p0(i64 4, ptr %7) #8
  ret void
}