; Function Attrs: nofree norecurse nosync nounwind memory(argmem: readwrite) uwtable
define internal void @snow_horizontal_compose97i(ptr noundef captures(none) %0, ptr noundef captures(none) initializes((0, 2)) %1, i32 noundef %2) #10 {
  %4 = add nsw i32 %2, 1
  %5 = ashr i32 %4, 1
  %6 = load i16, ptr %0, align 2, !tbaa !48
  %7 = sext i32 %5 to i64
  %8 = getelementptr inbounds i16, ptr %0, i64 %7
  %9 = load i16, ptr %8, align 2, !tbaa !48
  %10 = sext i16 %9 to i32
  %11 = mul nsw i32 %10, 3
  %12 = add nsw i32 %11, 2
  %13 = lshr i32 %12, 2
  %14 = trunc i32 %13 to i16
  %15 = sub i16 %6, %14
  store i16 %15, ptr %1, align 2, !tbaa !48
  %16 = ashr i32 %2, 1
  %17 = icmp sgt i32 %16, 1
  br i1 %17, label %.lr.ph.preheader, label %._crit_edge

.lr.ph.preheader:                                 ; preds = %3
  %wide.trip.count = zext nneg i32 %16 to i64
  %invariant.gep = getelementptr i16, ptr %0, i64 %7
  br label %.lr.ph

.lr.ph:                                           ; preds = %.lr.ph.preheader, %.lr.ph
  %indvars.iv = phi i64 [ 1, %.lr.ph.preheader ], [ %indvars.iv.next, %.lr.ph ]
  %18 = getelementptr inbounds nuw i16, ptr %0, i64 %indvars.iv
  %19 = load i16, ptr %18, align 2, !tbaa !48
  %gep = getelementptr i16, ptr %invariant.gep, i64 %indvars.iv
  %20 = getelementptr i8, ptr %gep, i64 -2
  %21 = load i16, ptr %20, align 2, !tbaa !48
  %22 = sext i16 %21 to i32
  %23 = load i16, ptr %gep, align 2, !tbaa !48
  %24 = sext i16 %23 to i32
  %25 = add nsw i32 %24, %22
  %26 = mul nsw i32 %25, 3
  %27 = add nsw i32 %26, 4
  %28 = lshr i32 %27, 3
  %29 = trunc i32 %28 to i16
  %30 = sub i16 %19, %29
  %.idx = shl nuw nsw i64 %indvars.iv, 2
  %31 = getelementptr inbounds nuw i8, ptr %1, i64 %.idx
  store i16 %30, ptr %31, align 2, !tbaa !48
  %32 = load i16, ptr %20, align 2, !tbaa !48
  %33 = getelementptr i8, ptr %31, i64 -4
  %34 = load i16, ptr %33, align 2, !tbaa !48
  %35 = add i16 %34, %30
  %36 = sub i16 %32, %35
  %37 = getelementptr i8, ptr %31, i64 -2
  store i16 %36, ptr %37, align 2, !tbaa !48
  %indvars.iv.next = add nuw nsw i64 %indvars.iv, 1
  %exitcond.not = icmp eq i64 %indvars.iv.next, %wide.trip.count
  br i1 %exitcond.not, label %._crit_edge, label %.lr.ph, !llvm.loop !62

._crit_edge:                                      ; preds = %.lr.ph, %3
  %.0.lcssa = phi i32 [ 1, %3 ], [ %16, %.lr.ph ]
  %38 = and i32 %2, 1
  %.not = icmp eq i32 %38, 0
  br i1 %.not, label %62, label %39

39:                                               ; preds = %._crit_edge
  %40 = zext nneg i32 %.0.lcssa to i64
  %41 = getelementptr inbounds nuw i16, ptr %0, i64 %40
  %42 = load i16, ptr %41, align 2, !tbaa !48
  %43 = add nsw i32 %.0.lcssa, %5
  %44 = sext i32 %43 to i64
  %45 = getelementptr i16, ptr %0, i64 %44
  %46 = getelementptr i8, ptr %45, i64 -2
  %47 = load i16, ptr %46, align 2, !tbaa !48
  %48 = sext i16 %47 to i32
  %49 = mul nsw i32 %48, 3
  %50 = add nsw i32 %49, 2
  %51 = lshr i32 %50, 2
  %52 = trunc i32 %51 to i16
  %53 = sub i16 %42, %52
  %54 = shl nuw nsw i32 %.0.lcssa, 1
  %55 = zext nneg i32 %54 to i64
  %56 = getelementptr inbounds nuw i16, ptr %1, i64 %55
  store i16 %53, ptr %56, align 2, !tbaa !48
  %57 = load i16, ptr %46, align 2, !tbaa !48
  %58 = getelementptr i8, ptr %56, i64 -4
  %59 = load i16, ptr %58, align 2, !tbaa !48
  %60 = add i16 %59, %53
  %61 = sub i16 %57, %60
  br label %75

62:                                               ; preds = %._crit_edge
  %63 = add nsw i32 %.0.lcssa, %5
  %64 = sext i32 %63 to i64
  %65 = getelementptr i16, ptr %0, i64 %64
  %66 = getelementptr i8, ptr %65, i64 -2
  %67 = load i16, ptr %66, align 2, !tbaa !48
  %68 = shl nuw nsw i32 %.0.lcssa, 1
  %69 = zext nneg i32 %68 to i64
  %70 = getelementptr i16, ptr %1, i64 %69
  %71 = getelementptr i8, ptr %70, i64 -4
  %72 = load i16, ptr %71, align 2, !tbaa !48
  %73 = shl i16 %72, 1
  %74 = sub i16 %67, %73
  br label %75

75:                                               ; preds = %62, %39
  %76 = phi i64 [ %69, %62 ], [ %55, %39 ]
  %.sink = phi i16 [ %74, %62 ], [ %61, %39 ]
  %77 = getelementptr i16, ptr %1, i64 %76
  %78 = getelementptr i8, ptr %77, i64 -2
  store i16 %.sink, ptr %78, align 2, !tbaa !48
  %79 = sext i16 %15 to i32
  %80 = shl nsw i32 %79, 1
  %81 = getelementptr inbounds nuw i8, ptr %1, i64 2
  %82 = load i16, ptr %81, align 2, !tbaa !48
  %83 = sext i16 %82 to i32
  %84 = add nsw i32 %80, 4
  %85 = add nsw i32 %84, %83
  %86 = lshr i32 %85, 3
  %87 = trunc i32 %86 to i16
  %88 = add i16 %15, %87
  store i16 %88, ptr %0, align 2, !tbaa !48
  %89 = icmp sgt i32 %2, 3
  br i1 %89, label %.lr.ph106.preheader, label %._crit_edge107

.lr.ph106.preheader:                              ; preds = %75
  %90 = add nsw i32 %2, -1
  %91 = zext nneg i32 %90 to i64
  br label %.lr.ph106

.lr.ph106:                                        ; preds = %.lr.ph106.preheader, %.lr.ph106
  %indvars.iv111 = phi i64 [ 2, %.lr.ph106.preheader ], [ %indvars.iv.next112, %.lr.ph106 ]
  %92 = getelementptr inbounds nuw i16, ptr %1, i64 %indvars.iv111
  %93 = load i16, ptr %92, align 2, !tbaa !48
  %94 = sext i16 %93 to i32
  %95 = shl nsw i32 %94, 2
  %96 = add nsw i64 %indvars.iv111, -1
  %97 = getelementptr inbounds i16, ptr %1, i64 %96
  %98 = load i16, ptr %97, align 2, !tbaa !48
  %99 = sext i16 %98 to i32
  %100 = getelementptr inbounds nuw i8, ptr %92, i64 2
  %101 = load i16, ptr %100, align 2, !tbaa !48
  %102 = sext i16 %101 to i32
  %103 = add nsw i32 %99, 8
  %104 = add nsw i32 %103, %95
  %105 = add nsw i32 %104, %102
  %106 = lshr i32 %105, 4
  %107 = trunc i32 %106 to i16
  %108 = add i16 %93, %107
  %109 = getelementptr inbounds nuw i16, ptr %0, i64 %indvars.iv111
  store i16 %108, ptr %109, align 2, !tbaa !48
  %110 = load i16, ptr %97, align 2, !tbaa !48
  %111 = getelementptr i8, ptr %109, i64 -4
  %112 = load i16, ptr %111, align 2, !tbaa !48
  %113 = sext i16 %112 to i32
  %114 = sext i16 %108 to i32
  %115 = add nsw i32 %114, %113
  %116 = lshr i32 %115, 1
  %117 = add i32 %116, %115
  %118 = trunc i32 %117 to i16
  %119 = add i16 %110, %118
  %120 = getelementptr inbounds i16, ptr %0, i64 %96
  store i16 %119, ptr %120, align 2, !tbaa !48
  %indvars.iv.next112 = add nuw nsw i64 %indvars.iv111, 2
  %121 = icmp samesign ult i64 %indvars.iv.next112, %91
  br i1 %121, label %.lr.ph106, label %._crit_edge107.loopexit, !llvm.loop !63

._crit_edge107.loopexit:                          ; preds = %.lr.ph106
  %122 = trunc nuw nsw i64 %indvars.iv.next112 to i32
  br label %._crit_edge107

._crit_edge107:                                   ; preds = %._crit_edge107.loopexit, %75
  %.1.lcssa = phi i32 [ 2, %75 ], [ %122, %._crit_edge107.loopexit ]
  br i1 %.not, label %150, label %123

123:                                              ; preds = %._crit_edge107
  %124 = zext nneg i32 %.1.lcssa to i64
  %125 = getelementptr inbounds nuw i16, ptr %1, i64 %124
  %126 = load i16, ptr %125, align 2, !tbaa !48
  %127 = sext i16 %126 to i32
  %128 = shl nsw i32 %127, 1
  %129 = add nsw i32 %.1.lcssa, -1
  %130 = zext nneg i32 %129 to i64
  %131 = getelementptr inbounds nuw i16, ptr %1, i64 %130
  %132 = load i16, ptr %131, align 2, !tbaa !48
  %133 = sext i16 %132 to i32
  %134 = add nsw i32 %133, 4
  %135 = add nsw i32 %134, %128
  %136 = lshr i32 %135, 3
  %137 = trunc i32 %136 to i16
  %138 = add i16 %126, %137
  %139 = getelementptr inbounds nuw i16, ptr %0, i64 %124
  store i16 %138, ptr %139, align 2, !tbaa !48
  %140 = load i16, ptr %131, align 2, !tbaa !48
  %141 = getelementptr i8, ptr %139, i64 -4
  %142 = load i16, ptr %141, align 2, !tbaa !48
  %143 = sext i16 %142 to i32
  %144 = sext i16 %138 to i32
  %145 = add nsw i32 %144, %143
  %146 = lshr i32 %145, 1
  %147 = add i32 %146, %145
  %148 = trunc i32 %147 to i16
  %149 = add i16 %140, %148
  br label %161

150:                                              ; preds = %._crit_edge107
  %151 = add nsw i32 %.1.lcssa, -1
  %152 = zext nneg i32 %151 to i64
  %153 = getelementptr inbounds nuw i16, ptr %1, i64 %152
  %154 = load i16, ptr %153, align 2, !tbaa !48
  %155 = zext nneg i32 %.1.lcssa to i64
  %156 = getelementptr i16, ptr %0, i64 %155
  %157 = getelementptr i8, ptr %156, i64 -4
  %158 = load i16, ptr %157, align 2, !tbaa !48
  %159 = mul i16 %158, 3
  %160 = add i16 %159, %154
  br label %161

161:                                              ; preds = %150, %123
  %.sink118 = phi i64 [ %152, %150 ], [ %130, %123 ]
  %.sink116 = phi i16 [ %160, %150 ], [ %149, %123 ]
  %162 = getelementptr inbounds nuw i16, ptr %0, i64 %.sink118
  store i16 %.sink116, ptr %162, align 2, !tbaa !48
  ret void
}